; Function Attrs: mustprogress nofree norecurse nosync nounwind willreturn memory(argmem: write) uwtable
define void @_ZN2cv4face14FacemarkKazemi6ParamsC2Ev(ptr noundef nonnull align 8 dereferenceable(96) %0) unnamed_addr #10 align 2 personality ptr @__gxx_personality_v0 {
  %2 = getelementptr inbounds nuw i8, ptr %0, i64 64
  %3 = getelementptr inbounds nuw i8, ptr %0, i64 80
  store ptr %3, ptr %2, align 8, !tbaa !60
  %4 = getelementptr inbounds nuw i8, ptr %0, i64 72
  store i64 0, ptr %4, align 8, !tbaa !22
  store i8 0, ptr %3, align 8, !tbaa !61
  store i64 15, ptr %0, align 8, !tbaa !62
  %5 = getelementptr inbounds nuw i8, ptr %0, i64 8
  store i64 5, ptr %5, align 8, !tbaa !63
  %6 = getelementptr inbounds nuw i8, ptr %0, i64 16
  store i64 500, ptr %6, align 8, !tbaa !64
  %7 = getelementptr inbounds nuw i8, ptr %0, i64 24
  store float 0x3FB99999A0000000, ptr %7, align 8, !tbaa !65
  %8 = getelementptr inbounds nuw i8, ptr %0, i64 32
  store i64 20, ptr %8, align 8, !tbaa !66
  %9 = getelementptr inbounds nuw i8, ptr %0, i64 40
  store i64 500, ptr %9, align 8, !tbaa !67
  %10 = getelementptr inbounds nuw i8, ptr %0, i64 48
  store float 0x3FB99999A0000000, ptr %10, align 8, !tbaa !68
  %11 = getelementptr inbounds nuw i8, ptr %0, i64 56
  store i64 20, ptr %11, align 8, !tbaa !69
  ret void
}